; Function Attrs: nounwind uwtable
define ptr @Cudd_bddPermute(ptr noundef initializes((448, 452)) %0, ptr noundef %1, ptr noundef %2) local_unnamed_addr #0 {
  %4 = getelementptr inbounds nuw i8, ptr %0, i64 448
  store i32 0, ptr %4, align 8, !tbaa !26
  %5 = tail call ptr @cuddHashTableInit(ptr noundef %0, i32 noundef 1, i32 noundef 2) #7
  %6 = icmp eq ptr %5, null
  br i1 %6, label %.loopexit, label %.lr.ph

.lr.ph:                                           ; preds = %3, %.backedge
  %7 = phi ptr [ %12, %.backedge ], [ %5, %3 ]
  %8 = tail call fastcc ptr @cuddBddPermuteRecur(ptr noundef nonnull %0, ptr noundef %7, ptr noundef %1, ptr noundef %2)
  %.not = icmp eq ptr %8, null
  br i1 %.not, label %9, label %.thread

9:                                                ; preds = %.lr.ph
  tail call void @cuddHashTableQuit(ptr noundef nonnull %7) #7
  %10 = load i32, ptr %4, align 8, !tbaa !26
  %11 = icmp eq i32 %10, 1
  br i1 %11, label %.backedge, label %.loopexit

.backedge:                                        ; preds = %9, %.thread
  store i32 0, ptr %4, align 8, !tbaa !26
  %12 = tail call ptr @cuddHashTableInit(ptr noundef nonnull %0, i32 noundef 1, i32 noundef 2) #7
  %13 = icmp eq ptr %12, null
  br i1 %13, label %.loopexit, label %.lr.ph, !llvm.loop !41

.thread:                                          ; preds = %.lr.ph
  %14 = ptrtoint ptr %8 to i64
  %15 = and i64 %14, -2
  %16 = inttoptr i64 %15 to ptr
  %17 = getelementptr inbounds nuw i8, ptr %16, i64 4
  %18 = load i32, ptr %17, align 4, !tbaa !33
  %19 = add i32 %18, 1
  store i32 %19, ptr %17, align 4, !tbaa !33
  tail call void @cuddHashTableQuit(ptr noundef nonnull %7) #7
  %20 = load i32, ptr %4, align 8, !tbaa !26
  %21 = icmp eq i32 %20, 1
  br i1 %21, label %.backedge, label %22

22:                                               ; preds = %.thread
  %23 = getelementptr inbounds nuw i8, ptr %16, i64 4
  %24 = load i32, ptr %23, align 4, !tbaa !33
  %25 = add i32 %24, -1
  store i32 %25, ptr %23, align 4, !tbaa !33
  br label %.loopexit

.loopexit:                                        ; preds = %.backedge, %9, %3, %22
  %.0 = phi ptr [ %8, %22 ], [ null, %3 ], [ null, %9 ], [ null, %.backedge ]
  ret ptr %.0
}